target datalayout = "e-m:e-p270:32:32-p271:32:32-p272:64:64-i64:64-i128:128-f80:128-n8:16:32:64-S128"
target triple = "x86_64-pc-linux-gnu"

%struct.bn_blinding_st = type { ptr, ptr, ptr, ptr, i64, i32, i64, ptr, ptr, ptr }

@.str = private unnamed_addr constant [32 x i8] c"../openssl/crypto/bn/bn_blind.c\00", align 1
@__func__.BN_BLINDING_new = private unnamed_addr constant [16 x i8] c"BN_BLINDING_new\00", align 1

; Function Attrs: nounwind uwtable
define void @BN_BLINDING_free(ptr noundef %0) #0 {
  %2 = alloca ptr, align 8
  store ptr %0, ptr %2, align 8, !tbaa !8
  %3 = load ptr, ptr %2, align 8, !tbaa !8
  %4 = icmp eq ptr %3, null
  br i1 %4, label %5, label %6

5:                                                ; preds = %1
  br label %23

6:                                                ; preds = %1
  %7 = load ptr, ptr %2, align 8, !tbaa !8
  %8 = getelementptr inbounds nuw %struct.bn_blinding_st, ptr %7, i32 0, i32 0
  %9 = load ptr, ptr %8, align 8, !tbaa !15
  call void @BN_free(ptr noundef %9)
  %10 = load ptr, ptr %2, align 8, !tbaa !8
  %11 = getelementptr inbounds nuw %struct.bn_blinding_st, ptr %10, i32 0, i32 1
  %12 = load ptr, ptr %11, align 8, !tbaa !16
  call void @BN_free(ptr noundef %12)
  %13 = load ptr, ptr %2, align 8, !tbaa !8
  %14 = getelementptr inbounds nuw %struct.bn_blinding_st, ptr %13, i32 0, i32 2
  %15 = load ptr, ptr %14, align 8, !tbaa !20
  call void @BN_free(ptr noundef %15)
  %16 = load ptr, ptr %2, align 8, !tbaa !8
  %17 = getelementptr inbounds nuw %struct.bn_blinding_st, ptr %16, i32 0, i32 3
  %18 = load ptr, ptr %17, align 8, !tbaa !17
  call void @BN_free(ptr noundef %18)
  %19 = load ptr, ptr %2, align 8, !tbaa !8
  %20 = getelementptr inbounds nuw %struct.bn_blinding_st, ptr %19, i32 0, i32 9
  %21 = load ptr, ptr %20, align 8, !tbaa !10
  call void @CRYPTO_THREAD_lock_free(ptr noundef %21)
  %22 = load ptr, ptr %2, align 8, !tbaa !8
  call void @CRYPTO_free(ptr noundef %22, ptr noundef @.str, i32 noundef 88)
  br label %23

23:                                               ; preds = %6, %5
  ret void
}

; Function Attrs: nounwind uwtable
define void @BN_BLINDING_set_current_thread(ptr noundef %0) #0 {
  %2 = alloca ptr, align 8
  store ptr %0, ptr %2, align 8, !tbaa !8
  %3 = call i64 @CRYPTO_THREAD_get_current_id()
  %4 = load ptr, ptr %2, align 8, !tbaa !8
  %5 = getelementptr inbounds nuw %struct.bn_blinding_st, ptr %4, i32 0, i32 4
  store i64 %3, ptr %5, align 8, !tbaa !19
  ret void
}

; Function Attrs: nounwind uwtable
define ptr @BN_BLINDING_new(ptr noundef %0, ptr noundef %1, ptr noundef %2) #0 {
  %4 = alloca ptr, align 8
  %5 = alloca ptr, align 8
  %6 = alloca ptr, align 8
  %7 = alloca ptr, align 8
  %8 = alloca ptr, align 8
  %9 = alloca i32, align 4
  store ptr %0, ptr %5, align 8, !tbaa !3
  store ptr %1, ptr %6, align 8, !tbaa !3
  store ptr %2, ptr %7, align 8, !tbaa !3
  call void @llvm.lifetime.start.p0(i64 8, ptr %8) #3
  store ptr null, ptr %8, align 8, !tbaa !8
  %10 = call noalias ptr @CRYPTO_zalloc(i64 noundef 80, ptr noundef @.str, i32 noundef 36)
  store ptr %10, ptr %8, align 8, !tbaa !8
  %11 = icmp eq ptr %10, null
  br i1 %11, label %12, label %13

12:                                               ; preds = %3
  store ptr null, ptr %4, align 8
  store i32 1, ptr %9, align 4
  br label %67

13:                                               ; preds = %3
  %14 = call ptr @CRYPTO_THREAD_lock_new()
  %15 = load ptr, ptr %8, align 8, !tbaa !8
  %16 = getelementptr inbounds nuw %struct.bn_blinding_st, ptr %15, i32 0, i32 9
  store ptr %14, ptr %16, align 8, !tbaa !10
  %17 = load ptr, ptr %8, align 8, !tbaa !8
  %18 = getelementptr inbounds nuw %struct.bn_blinding_st, ptr %17, i32 0, i32 9
  %19 = load ptr, ptr %18, align 8, !tbaa !10
  %20 = icmp eq ptr %19, null
  br i1 %20, label %21, label %23

21:                                               ; preds = %13
  call void @ERR_new()
  call void @ERR_set_debug(ptr noundef @.str, i32 noundef 41, ptr noundef @__func__.BN_BLINDING_new)
  call void (i32, i32, ptr, ...) @ERR_set_error(i32 noundef 3, i32 noundef 524303, ptr noundef null)
  %22 = load ptr, ptr %8, align 8, !tbaa !8
  call void @CRYPTO_free(ptr noundef %22, ptr noundef @.str, i32 noundef 42)
  store ptr null, ptr %4, align 8
  store i32 1, ptr %9, align 4
  br label %67

23:                                               ; preds = %13
  %24 = load ptr, ptr %8, align 8, !tbaa !8
  call void @BN_BLINDING_set_current_thread(ptr noundef %24)
  %25 = load ptr, ptr %5, align 8, !tbaa !3
  %26 = icmp ne ptr %25, null
  br i1 %26, label %27, label %35

27:                                               ; preds = %23
  %28 = load ptr, ptr %5, align 8, !tbaa !3
  %29 = call ptr @BN_dup(ptr noundef %28)
  %30 = load ptr, ptr %8, align 8, !tbaa !8
  %31 = getelementptr inbounds nuw %struct.bn_blinding_st, ptr %30, i32 0, i32 0
  store ptr %29, ptr %31, align 8, !tbaa !15
  %32 = icmp eq ptr %29, null
  br i1 %32, label %33, label %34

33:                                               ; preds = %27
  br label %65

34:                                               ; preds = %27
  br label %35

35:                                               ; preds = %34, %23
  %36 = load ptr, ptr %6, align 8, !tbaa !3
  %37 = icmp ne ptr %36, null
  br i1 %37, label %38, label %46

38:                                               ; preds = %35
  %39 = load ptr, ptr %6, align 8, !tbaa !3
  %40 = call ptr @BN_dup(ptr noundef %39)
  %41 = load ptr, ptr %8, align 8, !tbaa !8
  %42 = getelementptr inbounds nuw %struct.bn_blinding_st, ptr %41, i32 0, i32 1
  store ptr %40, ptr %42, align 8, !tbaa !16
  %43 = icmp eq ptr %40, null
  br i1 %43, label %44, label %45

44:                                               ; preds = %38
  br label %65

45:                                               ; preds = %38
  br label %46

46:                                               ; preds = %45, %35
  %47 = load ptr, ptr %7, align 8, !tbaa !3
  %48 = call ptr @BN_dup(ptr noundef %47)
  %49 = load ptr, ptr %8, align 8, !tbaa !8
  %50 = getelementptr inbounds nuw %struct.bn_blinding_st, ptr %49, i32 0, i32 3
  store ptr %48, ptr %50, align 8, !tbaa !17
  %51 = icmp eq ptr %48, null
  br i1 %51, label %52, label %53

52:                                               ; preds = %46
  br label %65

53:                                               ; preds = %46
  %54 = load ptr, ptr %7, align 8, !tbaa !3
  %55 = call i32 @BN_get_flags(ptr noundef %54, i32 noundef 4)
  %56 = icmp ne i32 %55, 0
  br i1 %56, label %57, label %61

57:                                               ; preds = %53
  %58 = load ptr, ptr %8, align 8, !tbaa !8
  %59 = getelementptr inbounds nuw %struct.bn_blinding_st, ptr %58, i32 0, i32 3
  %60 = load ptr, ptr %59, align 8, !tbaa !17
  call void @BN_set_flags(ptr noundef %60, i32 noundef 4)
  br label %61

61:                                               ; preds = %57, %53
  %62 = load ptr, ptr %8, align 8, !tbaa !8
  %63 = getelementptr inbounds nuw %struct.bn_blinding_st, ptr %62, i32 0, i32 5
  store i32 -1, ptr %63, align 8, !tbaa !18
  %64 = load ptr, ptr %8, align 8, !tbaa !8
  store ptr %64, ptr %4, align 8
  store i32 1, ptr %9, align 4
  br label %67

65:                                               ; preds = %52, %44, %33
  %66 = load ptr, ptr %8, align 8, !tbaa !8
  call void @BN_BLINDING_free(ptr noundef %66)
  store ptr null, ptr %4, align 8
  store i32 1, ptr %9, align 4
  br label %67

67:                                               ; preds = %65, %61, %21, %12
  call void @llvm.lifetime.end.p0(i64 8, ptr %8) #3
  %68 = load ptr, ptr %4, align 8
  ret ptr %68
}