; Function Attrs: nounwind uwtable
define ptr @BN_BLINDING_new(ptr noundef %0, ptr noundef %1, ptr noundef %2) local_unnamed_addr #0 {
  %4 = tail call noalias ptr @CRYPTO_zalloc(i64 noundef 80, ptr noundef nonnull @.str, i32 noundef 36) #6
  %5 = icmp eq ptr %4, null
  br i1 %5, label %40, label %6

6:                                                ; preds = %3
  %7 = tail call ptr @CRYPTO_THREAD_lock_new() #6
  %8 = getelementptr inbounds nuw i8, ptr %4, i64 72
  store ptr %7, ptr %8, align 8, !tbaa !3
  %9 = icmp eq ptr %7, null
  br i1 %9, label %10, label %11

10:                                               ; preds = %6
  tail call void @ERR_new() #6
  tail call void @ERR_set_debug(ptr noundef nonnull @.str, i32 noundef 41, ptr noundef nonnull @__func__.BN_BLINDING_new) #6
  tail call void (i32, i32, ptr, ...) @ERR_set_error(i32 noundef 3, i32 noundef 524303, ptr noundef null) #6
  tail call void @CRYPTO_free(ptr noundef nonnull %4, ptr noundef nonnull @.str, i32 noundef 42) #6
  br label %40

11:                                               ; preds = %6
  %12 = tail call i64 @CRYPTO_THREAD_get_current_id() #6
  %13 = getelementptr inbounds nuw i8, ptr %4, i64 32
  store i64 %12, ptr %13, align 8, !tbaa !12
  %.not = icmp eq ptr %0, null
  br i1 %.not, label %17, label %14

14:                                               ; preds = %11
  %15 = tail call ptr @BN_dup(ptr noundef nonnull %0) #6
  store ptr %15, ptr %4, align 8, !tbaa !13
  %16 = icmp eq ptr %15, null
  br i1 %16, label %BN_BLINDING_free.exit, label %17

17:                                               ; preds = %14, %11
  %.not21 = icmp eq ptr %1, null
  br i1 %.not21, label %22, label %18

18:                                               ; preds = %17
  %19 = tail call ptr @BN_dup(ptr noundef nonnull %1) #6
  %20 = getelementptr inbounds nuw i8, ptr %4, i64 8
  store ptr %19, ptr %20, align 8, !tbaa !14
  %21 = icmp eq ptr %19, null
  br i1 %21, label %BN_BLINDING_free.exit, label %22

22:                                               ; preds = %18, %17
  %23 = tail call ptr @BN_dup(ptr noundef %2) #6
  %24 = getelementptr inbounds nuw i8, ptr %4, i64 24
  store ptr %23, ptr %24, align 8, !tbaa !15
  %25 = icmp eq ptr %23, null
  br i1 %25, label %BN_BLINDING_free.exit, label %26

26:                                               ; preds = %22
  %27 = tail call i32 @BN_get_flags(ptr noundef %2, i32 noundef 4) #6
  %.not22 = icmp eq i32 %27, 0
  br i1 %.not22, label %30, label %28

28:                                               ; preds = %26
  %29 = load ptr, ptr %24, align 8, !tbaa !15
  tail call void @BN_set_flags(ptr noundef %29, i32 noundef 4) #6
  br label %30

30:                                               ; preds = %28, %26
  %31 = getelementptr inbounds nuw i8, ptr %4, i64 40
  store i32 -1, ptr %31, align 8, !tbaa !16
  br label %40

BN_BLINDING_free.exit:                            ; preds = %22, %18, %14
  %32 = load ptr, ptr %4, align 8, !tbaa !13
  tail call void @BN_free(ptr noundef %32) #6
  %33 = getelementptr inbounds nuw i8, ptr %4, i64 8
  %34 = load ptr, ptr %33, align 8, !tbaa !14
  tail call void @BN_free(ptr noundef %34) #6
  %35 = getelementptr inbounds nuw i8, ptr %4, i64 16
  %36 = load ptr, ptr %35, align 8, !tbaa !17
  tail call void @BN_free(ptr noundef %36) #6
  %37 = getelementptr inbounds nuw i8, ptr %4, i64 24
  %38 = load ptr, ptr %37, align 8, !tbaa !15
  tail call void @BN_free(ptr noundef %38) #6
  %39 = load ptr, ptr %8, align 8, !tbaa !3
  tail call void @CRYPTO_THREAD_lock_free(ptr noundef %39) #6
  tail call void @CRYPTO_free(ptr noundef nonnull %4, ptr noundef nonnull @.str, i32 noundef 88) #6
  br label %40

40:                                               ; preds = %3, %BN_BLINDING_free.exit, %30, %10
  %.0 = phi ptr [ null, %10 ], [ null, %BN_BLINDING_free.exit ], [ %4, %30 ], [ null, %3 ]
  ret ptr %.0
}